target datalayout = "e-m:e-p270:32:32-p271:32:32-p272:64:64-i64:64-i128:128-f80:128-n8:16:32:64-S128"
target triple = "x86_64-pc-linux-gnu"

%"class.glslang::TInputScanner" = type <{ ptr, i32, [4 x i8], ptr, ptr, i32, [4 x i8], i64, ptr, i32, i32, %"struct.glslang::TSourceLoc", i8, i8, [6 x i8] }>
%"struct.glslang::TSourceLoc" = type { ptr, i32, i32, i32 }

; Function Attrs: mustprogress nounwind uwtable
define linkonce_odr noundef i32 @_ZN7glslang13TInputScanner3getEv(ptr noundef nonnull align 8 dereferenceable(90) %0) #0 comdat align 2 {
  %2 = alloca i32, align 4
  %3 = alloca ptr, align 8
  %4 = alloca i32, align 4
  store ptr %0, ptr %3, align 8
  %5 = load ptr, ptr %3, align 8
  %6 = call noundef i32 @_ZN7glslang13TInputScanner4peekEv(ptr noundef nonnull align 8 dereferenceable(90) %5)
  store i32 %6, ptr %4, align 4
  %7 = load i32, ptr %4, align 4
  %8 = icmp eq i32 %7, -1
  br i1 %8, label %9, label %11

9:                                                ; preds = %1
  %10 = load i32, ptr %4, align 4
  store i32 %10, ptr %2, align 4
  br label %52

11:                                               ; preds = %1
  %12 = getelementptr inbounds %"class.glslang::TInputScanner", ptr %5, i32 0, i32 8
  %13 = load ptr, ptr %12, align 8
  %14 = getelementptr inbounds %"class.glslang::TInputScanner", ptr %5, i32 0, i32 5
  %15 = load i32, ptr %14, align 8
  %16 = sext i32 %15 to i64
  %17 = getelementptr inbounds %"struct.glslang::TSourceLoc", ptr %13, i64 %16
  %18 = getelementptr inbounds %"struct.glslang::TSourceLoc", ptr %17, i32 0, i32 3
  %19 = load i32, ptr %18, align 8
  %20 = add nsw i32 %19, 1
  store i32 %20, ptr %18, align 8
  %21 = getelementptr inbounds %"class.glslang::TInputScanner", ptr %5, i32 0, i32 11
  %22 = getelementptr inbounds %"struct.glslang::TSourceLoc", ptr %21, i32 0, i32 3
  %23 = load i32, ptr %22, align 8
  %24 = add nsw i32 %23, 1
  store i32 %24, ptr %22, align 8
  %25 = load i32, ptr %4, align 4
  %26 = icmp eq i32 %25, 10
  br i1 %26, label %27, label %50

27:                                               ; preds = %11
  %28 = getelementptr inbounds %"class.glslang::TInputScanner", ptr %5, i32 0, i32 8
  %29 = load ptr, ptr %28, align 8
  %30 = getelementptr inbounds %"class.glslang::TInputScanner", ptr %5, i32 0, i32 5
  %31 = load i32, ptr %30, align 8
  %32 = sext i32 %31 to i64
  %33 = getelementptr inbounds %"struct.glslang::TSourceLoc", ptr %29, i64 %32
  %34 = getelementptr inbounds %"struct.glslang::TSourceLoc", ptr %33, i32 0, i32 2
  %35 = load i32, ptr %34, align 4
  %36 = add nsw i32 %35, 1
  store i32 %36, ptr %34, align 4
  %37 = getelementptr inbounds %"class.glslang::TInputScanner", ptr %5, i32 0, i32 11
  %38 = getelementptr inbounds %"struct.glslang::TSourceLoc", ptr %37, i32 0, i32 2
  %39 = load i32, ptr %38, align 4
  %40 = add nsw i32 %39, 1
  store i32 %40, ptr %38, align 4
  %41 = getelementptr inbounds %"class.glslang::TInputScanner", ptr %5, i32 0, i32 11
  %42 = getelementptr inbounds %"struct.glslang::TSourceLoc", ptr %41, i32 0, i32 3
  store i32 0, ptr %42, align 8
  %43 = getelementptr inbounds %"class.glslang::TInputScanner", ptr %5, i32 0, i32 8
  %44 = load ptr, ptr %43, align 8
  %45 = getelementptr inbounds %"class.glslang::TInputScanner", ptr %5, i32 0, i32 5
  %46 = load i32, ptr %45, align 8
  %47 = sext i32 %46 to i64
  %48 = getelementptr inbounds %"struct.glslang::TSourceLoc", ptr %44, i64 %47
  %49 = getelementptr inbounds %"struct.glslang::TSourceLoc", ptr %48, i32 0, i32 3
  store i32 0, ptr %49, align 8
  br label %50

50:                                               ; preds = %27, %11
  call void @_ZN7glslang13TInputScanner7advanceEv(ptr noundef nonnull align 8 dereferenceable(90) %5)
  %51 = load i32, ptr %4, align 4
  store i32 %51, ptr %2, align 4
  br label %52

52:                                               ; preds = %50, %9
  %53 = load i32, ptr %2, align 4
  ret i32 %53
}

; Function Attrs: mustprogress nounwind uwtable
define linkonce_odr noundef i32 @_ZN7glslang13TInputScanner4peekEv(ptr noundef nonnull align 8 dereferenceable(90) %0) #0 comdat align 2 {
  %2 = alloca i32, align 4
  %3 = alloca ptr, align 8
  %4 = alloca i32, align 4
  %5 = alloca i64, align 8
  store ptr %0, ptr %3, align 8
  %6 = load ptr, ptr %3, align 8
  %7 = getelementptr inbounds %"class.glslang::TInputScanner", ptr %6, i32 0, i32 5
  %8 = load i32, ptr %7, align 8
  %9 = getelementptr inbounds %"class.glslang::TInputScanner", ptr %6, i32 0, i32 1
  %10 = load i32, ptr %9, align 8
  %11 = icmp sge i32 %8, %10
  br i1 %11, label %12, label %14

12:                                               ; preds = %1
  %13 = getelementptr inbounds %"class.glslang::TInputScanner", ptr %6, i32 0, i32 13
  store i8 1, ptr %13, align 1
  store i32 -1, ptr %2, align 4
  br label %48

14:                                               ; preds = %1
  %15 = getelementptr inbounds %"class.glslang::TInputScanner", ptr %6, i32 0, i32 5
  %16 = load i32, ptr %15, align 8
  store i32 %16, ptr %4, align 4
  %17 = getelementptr inbounds %"class.glslang::TInputScanner", ptr %6, i32 0, i32 7
  %18 = load i64, ptr %17, align 8
  store i64 %18, ptr %5, align 8
  br label %19

19:                                               ; preds = %36, %14
  %20 = load i64, ptr %5, align 8
  %21 = getelementptr inbounds %"class.glslang::TInputScanner", ptr %6, i32 0, i32 4
  %22 = load ptr, ptr %21, align 8
  %23 = load i32, ptr %4, align 4
  %24 = sext i32 %23 to i64
  %25 = getelementptr inbounds i64, ptr %22, i64 %24
  %26 = load i64, ptr %25, align 8
  %27 = icmp uge i64 %20, %26
  br i1 %27, label %28, label %37

28:                                               ; preds = %19
  store i64 0, ptr %5, align 8
  %29 = load i32, ptr %4, align 4
  %30 = add nsw i32 %29, 1
  store i32 %30, ptr %4, align 4
  %31 = load i32, ptr %4, align 4
  %32 = getelementptr inbounds %"class.glslang::TInputScanner", ptr %6, i32 0, i32 1
  %33 = load i32, ptr %32, align 8
  %34 = icmp sge i32 %31, %33
  br i1 %34, label %35, label %36

35:                                               ; preds = %28
  store i32 -1, ptr %2, align 4
  br label %48

36:                                               ; preds = %28
  br label %19, !llvm.loop !6

37:                                               ; preds = %19
  %38 = getelementptr inbounds %"class.glslang::TInputScanner", ptr %6, i32 0, i32 3
  %39 = load ptr, ptr %38, align 8
  %40 = load i32, ptr %4, align 4
  %41 = sext i32 %40 to i64
  %42 = getelementptr inbounds ptr, ptr %39, i64 %41
  %43 = load ptr, ptr %42, align 8
  %44 = load i64, ptr %5, align 8
  %45 = getelementptr inbounds i8, ptr %43, i64 %44
  %46 = load i8, ptr %45, align 1
  %47 = zext i8 %46 to i32
  store i32 %47, ptr %2, align 4
  br label %48

48:                                               ; preds = %37, %35, %12
  %49 = load i32, ptr %2, align 4
  ret i32 %49
}

; Function Attrs: mustprogress nounwind uwtable
define void @_ZN7glslang13TInputScanner17consumeWhiteSpaceERb(ptr noundef nonnull align 8 dereferenceable(90) %0, ptr noundef nonnull align 1 dereferenceable(1) %1) #0 align 2 {
  %3 = alloca ptr, align 8
  %4 = alloca ptr, align 8
  %5 = alloca i32, align 4
  store ptr %0, ptr %3, align 8
  store ptr %1, ptr %4, align 8
  %6 = load ptr, ptr %3, align 8
  %7 = call noundef i32 @_ZN7glslang13TInputScanner4peekEv(ptr noundef nonnull align 8 dereferenceable(90) %6)
  store i32 %7, ptr %5, align 4
  br label %8

8:                                                ; preds = %30, %2
  %9 = load i32, ptr %5, align 4
  %10 = icmp eq i32 %9, 32
  br i1 %10, label %20, label %11

11:                                               ; preds = %8
  %12 = load i32, ptr %5, align 4
  %13 = icmp eq i32 %12, 9
  br i1 %13, label %20, label %14

14:                                               ; preds = %11
  %15 = load i32, ptr %5, align 4
  %16 = icmp eq i32 %15, 13
  br i1 %16, label %20, label %17

17:                                               ; preds = %14
  %18 = load i32, ptr %5, align 4
  %19 = icmp eq i32 %18, 10
  br label %20

20:                                               ; preds = %17, %14, %11, %8
  %21 = phi i1 [ true, %14 ], [ true, %11 ], [ true, %8 ], [ %19, %17 ]
  br i1 %21, label %22, label %33

22:                                               ; preds = %20
  %23 = load i32, ptr %5, align 4
  %24 = icmp eq i32 %23, 13
  br i1 %24, label %28, label %25

25:                                               ; preds = %22
  %26 = load i32, ptr %5, align 4
  %27 = icmp eq i32 %26, 10
  br i1 %27, label %28, label %30

28:                                               ; preds = %25, %22
  %29 = load ptr, ptr %4, align 8
  store i8 1, ptr %29, align 1
  br label %30

30:                                               ; preds = %28, %25
  %31 = call noundef i32 @_ZN7glslang13TInputScanner3getEv(ptr noundef nonnull align 8 dereferenceable(90) %6)
  %32 = call noundef i32 @_ZN7glslang13TInputScanner4peekEv(ptr noundef nonnull align 8 dereferenceable(90) %6)
  store i32 %32, ptr %5, align 4
  br label %8, !llvm.loop !4

33:                                               ; preds = %20
  ret void
}