; Function Attrs: mustprogress nounwind uwtable
define void @_ZN7glslang13TInputScanner17consumeWhiteSpaceERb(ptr noundef nonnull align 8 dereferenceable(90) %0, ptr noundef nonnull writeonly align 1 captures(none) dereferenceable(1) %1) local_unnamed_addr #0 align 2 {
  %3 = getelementptr inbounds nuw i8, ptr %0, i64 32
  %4 = load i32, ptr %3, align 8
  %5 = getelementptr inbounds nuw i8, ptr %0, i64 8
  %6 = load i32, ptr %5, align 8
  %.not.i = icmp slt i32 %4, %6
  br i1 %.not.i, label %9, label %7

7:                                                ; preds = %2
  %8 = getelementptr inbounds nuw i8, ptr %0, i64 89
  store i8 1, ptr %8, align 1
  br label %_ZN7glslang13TInputScanner4peekEv.exit

9:                                                ; preds = %2
  %10 = getelementptr inbounds nuw i8, ptr %0, i64 40
  %11 = load i64, ptr %10, align 8
  %12 = getelementptr inbounds nuw i8, ptr %0, i64 24
  %13 = load ptr, ptr %12, align 8
  %14 = sext i32 %4 to i64
  %wide.trip.count.i = sext i32 %6 to i64
  br label %15

15:                                               ; preds = %18, %9
  %indvars.iv.i = phi i64 [ %indvars.iv.next.i, %18 ], [ %14, %9 ]
  %.0.i = phi i64 [ 0, %18 ], [ %11, %9 ]
  %16 = getelementptr inbounds i64, ptr %13, i64 %indvars.iv.i
  %17 = load i64, ptr %16, align 8
  %.not11.i = icmp ult i64 %.0.i, %17
  br i1 %.not11.i, label %19, label %18

18:                                               ; preds = %15
  %indvars.iv.next.i = add nsw i64 %indvars.iv.i, 1
  %exitcond.not.i = icmp eq i64 %indvars.iv.next.i, %wide.trip.count.i
  br i1 %exitcond.not.i, label %_ZN7glslang13TInputScanner4peekEv.exit, label %15, !llvm.loop !4

19:                                               ; preds = %15
  %20 = getelementptr inbounds nuw i8, ptr %0, i64 16
  %21 = load ptr, ptr %20, align 8
  %22 = getelementptr inbounds ptr, ptr %21, i64 %indvars.iv.i
  %23 = load ptr, ptr %22, align 8
  %24 = getelementptr inbounds i8, ptr %23, i64 %.0.i
  %25 = load i8, ptr %24, align 1
  %26 = zext i8 %25 to i32
  br label %_ZN7glslang13TInputScanner4peekEv.exit

_ZN7glslang13TInputScanner4peekEv.exit:           ; preds = %18, %7, %19
  %.08.i = phi i32 [ -1, %7 ], [ %26, %19 ], [ -1, %18 ]
  %27 = getelementptr inbounds nuw i8, ptr %0, i64 89
  %28 = getelementptr inbounds nuw i8, ptr %0, i64 40
  %29 = getelementptr inbounds nuw i8, ptr %0, i64 24
  %30 = getelementptr inbounds nuw i8, ptr %0, i64 16
  %31 = getelementptr inbounds nuw i8, ptr %0, i64 48
  %32 = getelementptr inbounds nuw i8, ptr %0, i64 80
  %33 = getelementptr inbounds nuw i8, ptr %0, i64 76
  br label %34

34:                                               ; preds = %_ZN7glslang13TInputScanner4peekEv.exit22, %_ZN7glslang13TInputScanner4peekEv.exit
  %35 = phi i32 [ %6, %_ZN7glslang13TInputScanner4peekEv.exit ], [ %76, %_ZN7glslang13TInputScanner4peekEv.exit22 ]
  %36 = phi i32 [ %4, %_ZN7glslang13TInputScanner4peekEv.exit ], [ %77, %_ZN7glslang13TInputScanner4peekEv.exit22 ]
  %.0 = phi i32 [ %.08.i, %_ZN7glslang13TInputScanner4peekEv.exit ], [ %.08.i15, %_ZN7glslang13TInputScanner4peekEv.exit22 ]
  switch i32 %.0, label %94 [
    i32 13, label %37
    i32 10, label %37
    i32 9, label %38
    i32 32, label %38
  ]

37:                                               ; preds = %34, %34
  store i8 1, ptr %1, align 1
  %.pre = load i32, ptr %3, align 8
  %.pre35 = load i32, ptr %5, align 8
  br label %38

38:                                               ; preds = %34, %34, %37
  %39 = phi i32 [ %35, %34 ], [ %35, %34 ], [ %.pre35, %37 ]
  %40 = phi i32 [ %36, %34 ], [ %36, %34 ], [ %.pre, %37 ]
  %.not.i.i = icmp slt i32 %40, %39
  br i1 %.not.i.i, label %42, label %41

41:                                               ; preds = %38
  store i8 1, ptr %27, align 1
  br label %_ZN7glslang13TInputScanner3getEv.exit

42:                                               ; preds = %38
  %43 = load i64, ptr %28, align 8
  %44 = load ptr, ptr %29, align 8
  %45 = sext i32 %40 to i64
  %wide.trip.count.i.i = sext i32 %39 to i64
  br label %46

46:                                               ; preds = %49, %42
  %indvars.iv.i.i = phi i64 [ %indvars.iv.next.i.i, %49 ], [ %45, %42 ]
  %.0.i.i = phi i64 [ 0, %49 ], [ %43, %42 ]
  %47 = getelementptr inbounds i64, ptr %44, i64 %indvars.iv.i.i
  %48 = load i64, ptr %47, align 8
  %.not11.i.i = icmp ult i64 %.0.i.i, %48
  br i1 %.not11.i.i, label %_ZN7glslang13TInputScanner4peekEv.exit.i, label %49

49:                                               ; preds = %46
  %indvars.iv.next.i.i = add nsw i64 %indvars.iv.i.i, 1
  %exitcond.not.i.i = icmp eq i64 %indvars.iv.next.i.i, %wide.trip.count.i.i
  br i1 %exitcond.not.i.i, label %_ZN7glslang13TInputScanner3getEv.exit, label %46, !llvm.loop !4

_ZN7glslang13TInputScanner4peekEv.exit.i:         ; preds = %46
  %50 = load ptr, ptr %30, align 8
  %51 = getelementptr inbounds ptr, ptr %50, i64 %indvars.iv.i.i
  %52 = load ptr, ptr %51, align 8
  %53 = getelementptr inbounds i8, ptr %52, i64 %.0.i.i
  %54 = load i8, ptr %53, align 1
  %55 = load ptr, ptr %31, align 8
  %56 = getelementptr inbounds %"struct.glslang::TSourceLoc", ptr %55, i64 %45, i32 3
  %57 = load i32, ptr %56, align 8
  %58 = add nsw i32 %57, 1
  store i32 %58, ptr %56, align 8
  %59 = load i32, ptr %32, align 8
  %60 = add nsw i32 %59, 1
  store i32 %60, ptr %32, align 8
  %61 = icmp eq i8 %54, 10
  br i1 %61, label %62, label %75

62:                                               ; preds = %_ZN7glslang13TInputScanner4peekEv.exit.i
  %63 = load ptr, ptr %31, align 8
  %64 = load i32, ptr %3, align 8
  %65 = sext i32 %64 to i64
  %66 = getelementptr inbounds %"struct.glslang::TSourceLoc", ptr %63, i64 %65, i32 2
  %67 = load i32, ptr %66, align 4
  %68 = add nsw i32 %67, 1
  store i32 %68, ptr %66, align 4
  %69 = load i32, ptr %33, align 4
  %70 = add nsw i32 %69, 1
  store i32 %70, ptr %33, align 4
  store i32 0, ptr %32, align 8
  %71 = load ptr, ptr %31, align 8
  %72 = load i32, ptr %3, align 8
  %73 = sext i32 %72 to i64
  %74 = getelementptr inbounds %"struct.glslang::TSourceLoc", ptr %71, i64 %73, i32 3
  store i32 0, ptr %74, align 8
  br label %75

75:                                               ; preds = %62, %_ZN7glslang13TInputScanner4peekEv.exit.i
  tail call void @_ZN7glslang13TInputScanner7advanceEv(ptr noundef nonnull align 8 dereferenceable(90) %0)
  %.pre36 = load i32, ptr %3, align 8
  %.pre37 = load i32, ptr %5, align 8
  br label %_ZN7glslang13TInputScanner3getEv.exit

_ZN7glslang13TInputScanner3getEv.exit:            ; preds = %49, %41, %75
  %76 = phi i32 [ %39, %41 ], [ %.pre37, %75 ], [ %39, %49 ]
  %77 = phi i32 [ %40, %41 ], [ %.pre36, %75 ], [ %40, %49 ]
  %.not.i14 = icmp slt i32 %77, %76
  br i1 %.not.i14, label %79, label %78

78:                                               ; preds = %_ZN7glslang13TInputScanner3getEv.exit
  store i8 1, ptr %27, align 1
  br label %_ZN7glslang13TInputScanner4peekEv.exit22

79:                                               ; preds = %_ZN7glslang13TInputScanner3getEv.exit
  %80 = load i64, ptr %28, align 8
  %81 = load ptr, ptr %29, align 8
  %82 = sext i32 %77 to i64
  %wide.trip.count.i16 = sext i32 %76 to i64
  br label %83

83:                                               ; preds = %86, %79
  %indvars.iv.i17 = phi i64 [ %indvars.iv.next.i20, %86 ], [ %82, %79 ]
  %.0.i18 = phi i64 [ 0, %86 ], [ %80, %79 ]
  %84 = getelementptr inbounds i64, ptr %81, i64 %indvars.iv.i17
  %85 = load i64, ptr %84, align 8
  %.not11.i19 = icmp ult i64 %.0.i18, %85
  br i1 %.not11.i19, label %87, label %86

86:                                               ; preds = %83
  %indvars.iv.next.i20 = add nsw i64 %indvars.iv.i17, 1
  %exitcond.not.i21 = icmp eq i64 %indvars.iv.next.i20, %wide.trip.count.i16
  br i1 %exitcond.not.i21, label %_ZN7glslang13TInputScanner4peekEv.exit22, label %83, !llvm.loop !4

87:                                               ; preds = %83
  %88 = load ptr, ptr %30, align 8
  %89 = getelementptr inbounds ptr, ptr %88, i64 %indvars.iv.i17
  %90 = load ptr, ptr %89, align 8
  %91 = getelementptr inbounds i8, ptr %90, i64 %.0.i18
  %92 = load i8, ptr %91, align 1
  %93 = zext i8 %92 to i32
  br label %_ZN7glslang13TInputScanner4peekEv.exit22

_ZN7glslang13TInputScanner4peekEv.exit22:         ; preds = %86, %78, %87
  %.08.i15 = phi i32 [ -1, %78 ], [ %93, %87 ], [ -1, %86 ]
  br label %34, !llvm.loop !6

94:                                               ; preds = %34
  ret void
}